target datalayout = "e-m:e-p270:32:32-p271:32:32-p272:64:64-i64:64-i128:128-f80:128-n8:16:32:64-S128"
target triple = "x86_64-pc-linux-gnu"

@hf_value_length = internal global i32 0, align 4
@hf_status = internal global i32 0, align 4
@hf_value = internal global i32 0, align 4
@ett_multipath = internal global i32 0, align 4
@json_handle = internal global ptr null, align 8
@.str.809 = private unnamed_addr constant [21 x i8] c"Lookup Result [ %u ]\00", align 1

; Function Attrs: null_pointer_is_valid sspstrong uwtable
define internal void @dissect_multipath_lookup_response(ptr noundef %0, ptr noundef %1, ptr noundef %2, i32 noundef %3, i32 noundef %4) #0 {
  %6 = alloca ptr, align 8
  %7 = alloca ptr, align 8
  %8 = alloca ptr, align 8
  %9 = alloca i32, align 4
  %10 = alloca i32, align 4
  %11 = alloca i32, align 4
  %12 = alloca i32, align 4
  %13 = alloca ptr, align 8
  %14 = alloca ptr, align 8
  %15 = alloca ptr, align 8
  %16 = alloca i32, align 4
  %17 = alloca i32, align 4
  store ptr %0, ptr %6, align 8
  store ptr %1, ptr %7, align 8
  store ptr %2, ptr %8, align 8
  store i32 %3, ptr %9, align 4
  store i32 %4, ptr %10, align 4
  call void @llvm.lifetime.start.p0(i64 4, ptr %11) #7
  %18 = load i32, ptr %9, align 4
  %19 = load i32, ptr %10, align 4
  %20 = add i32 %18, %19
  store i32 %20, ptr %11, align 4
  call void @llvm.lifetime.start.p0(i64 4, ptr %12) #7
  store i32 0, ptr %12, align 4
  br label %21

21:                                               ; preds = %65, %5
  %22 = load i32, ptr %9, align 4
  %23 = load i32, ptr %11, align 4
  %24 = icmp slt i32 %22, %23
  br i1 %24, label %25, label %75

25:                                               ; preds = %21
  call void @llvm.lifetime.start.p0(i64 8, ptr %13) #7
  call void @llvm.lifetime.start.p0(i64 8, ptr %14) #7
  call void @llvm.lifetime.start.p0(i64 8, ptr %15) #7
  call void @llvm.lifetime.start.p0(i64 4, ptr %16) #7
  call void @llvm.lifetime.start.p0(i64 4, ptr %17) #7
  %26 = load i32, ptr %9, align 4
  store i32 %26, ptr %17, align 4
  %27 = load ptr, ptr %8, align 8
  %28 = load ptr, ptr %6, align 8
  %29 = load i32, ptr %9, align 4
  %30 = load i32, ptr @ett_multipath, align 4
  %31 = load i32, ptr %12, align 4
  %32 = call ptr (ptr, ptr, i32, i32, i32, ptr, ptr, ...) @proto_tree_add_subtree_format(ptr noundef %27, ptr noundef %28, i32 noundef %29, i32 noundef -1, i32 noundef %30, ptr noundef %14, ptr noundef @.str.809, i32 noundef %31)
  store ptr %32, ptr %13, align 8
  %33 = load ptr, ptr %14, align 8
  %34 = load i32, ptr @hf_status, align 4
  %35 = load ptr, ptr %6, align 8
  %36 = load i32, ptr %9, align 4
  %37 = call ptr @proto_tree_add_item(ptr noundef %33, i32 noundef %34, ptr noundef %35, i32 noundef %36, i32 noundef 2, i32 noundef 0)
  %38 = load i32, ptr %9, align 4
  %39 = add i32 %38, 2
  store i32 %39, ptr %9, align 4
  %40 = load ptr, ptr %14, align 8
  %41 = load i32, ptr @hf_value_length, align 4
  %42 = load ptr, ptr %6, align 8
  %43 = load i32, ptr %9, align 4
  %44 = call ptr @proto_tree_add_item_ret_uint(ptr noundef %40, i32 noundef %41, ptr noundef %42, i32 noundef %43, i32 noundef 4, i32 noundef 0, ptr noundef %16)
  %45 = load i32, ptr %9, align 4
  %46 = add i32 %45, 4
  store i32 %46, ptr %9, align 4
  %47 = load ptr, ptr %14, align 8
  %48 = load i32, ptr @hf_value, align 4
  %49 = load ptr, ptr %6, align 8
  %50 = load i32, ptr %9, align 4
  %51 = load i32, ptr %16, align 4
  %52 = call ptr @proto_tree_add_item(ptr noundef %47, i32 noundef %48, ptr noundef %49, i32 noundef %50, i32 noundef %51, i32 noundef 0)
  %53 = load i32, ptr %16, align 4
  %54 = icmp ugt i32 %53, 0
  br i1 %54, label %55, label %65

55:                                               ; preds = %25
  %56 = load ptr, ptr %6, align 8
  %57 = load i32, ptr %9, align 4
  %58 = load i32, ptr %16, align 4
  %59 = call ptr @tvb_new_subset_length(ptr noundef %56, i32 noundef %57, i32 noundef %58)
  store ptr %59, ptr %15, align 8
  %60 = load ptr, ptr @json_handle, align 8
  %61 = load ptr, ptr %15, align 8
  %62 = load ptr, ptr %7, align 8
  %63 = load ptr, ptr %14, align 8
  %64 = call i32 @call_dissector(ptr noundef %60, ptr noundef %61, ptr noundef %62, ptr noundef %63)
  br label %65

65:                                               ; preds = %55, %25
  %66 = load i32, ptr %16, align 4
  %67 = load i32, ptr %9, align 4
  %68 = add i32 %67, %66
  store i32 %68, ptr %9, align 4
  %69 = load ptr, ptr %13, align 8
  %70 = load i32, ptr %9, align 4
  %71 = load i32, ptr %17, align 4
  %72 = sub i32 %70, %71
  call void @proto_item_set_len(ptr noundef %69, i32 noundef %72)
  %73 = load i32, ptr %12, align 4
  %74 = add i32 %73, 1
  store i32 %74, ptr %12, align 4
  call void @llvm.lifetime.end.p0(i64 4, ptr %17) #7
  call void @llvm.lifetime.end.p0(i64 4, ptr %16) #7
  call void @llvm.lifetime.end.p0(i64 8, ptr %15) #7
  call void @llvm.lifetime.end.p0(i64 8, ptr %14) #7
  call void @llvm.lifetime.end.p0(i64 8, ptr %13) #7
  br label %21, !llvm.loop !18

75:                                               ; preds = %21
  call void @llvm.lifetime.end.p0(i64 4, ptr %12) #7
  call void @llvm.lifetime.end.p0(i64 4, ptr %11) #7
  ret void
}