; Function Attrs: null_pointer_is_valid sspstrong uwtable
define internal fastcc void @dissect_multipath_lookup_response(ptr noundef %0, ptr noundef %1, ptr noundef %2, i32 noundef range(i32 24, 66070) %3, i32 noundef range(i32 1, 0) %4) unnamed_addr #0 {
  %6 = alloca ptr, align 8
  %7 = alloca i32, align 4
  %8 = add i32 %4, %3
  %9 = icmp slt i32 %3, %8
  br i1 %9, label %.lr.ph, label %._crit_edge

.lr.ph:                                           ; preds = %5, %30
  %.028 = phi i32 [ %32, %30 ], [ %3, %5 ]
  %.02527 = phi i32 [ %34, %30 ], [ 0, %5 ]
  call void @llvm.lifetime.start.p0(i64 8, ptr nonnull %6) #4
  call void @llvm.lifetime.start.p0(i64 4, ptr nonnull %7) #4
  %10 = load i32, ptr @ett_multipath, align 4
  %11 = call ptr (ptr, ptr, i32, i32, i32, ptr, ptr, ...) @proto_tree_add_subtree_format(ptr noundef %2, ptr noundef %0, i32 noundef %.028, i32 noundef -1, i32 noundef %10, ptr noundef nonnull %6, ptr noundef nonnull @.str.809, i32 noundef %.02527)
  %12 = load ptr, ptr %6, align 8
  %13 = load i32, ptr @hf_status, align 4
  %14 = call ptr @proto_tree_add_item(ptr noundef %12, i32 noundef %13, ptr noundef %0, i32 noundef %.028, i32 noundef 2, i32 noundef 0)
  %15 = add i32 %.028, 2
  %16 = load ptr, ptr %6, align 8
  %17 = load i32, ptr @hf_value_length, align 4
  %18 = call ptr @proto_tree_add_item_ret_uint(ptr noundef %16, i32 noundef %17, ptr noundef %0, i32 noundef %15, i32 noundef 4, i32 noundef 0, ptr noundef nonnull %7)
  %19 = add i32 %.028, 6
  %20 = load ptr, ptr %6, align 8
  %21 = load i32, ptr @hf_value, align 4
  %22 = load i32, ptr %7, align 4
  %23 = call ptr @proto_tree_add_item(ptr noundef %20, i32 noundef %21, ptr noundef %0, i32 noundef %19, i32 noundef %22, i32 noundef 0)
  %24 = load i32, ptr %7, align 4
  %.not = icmp eq i32 %24, 0
  br i1 %.not, label %30, label %25

25:                                               ; preds = %.lr.ph
  %26 = call ptr @tvb_new_subset_length(ptr noundef %0, i32 noundef %19, i32 noundef %24)
  %27 = load ptr, ptr @json_handle, align 8
  %28 = load ptr, ptr %6, align 8
  %29 = call i32 @call_dissector(ptr noundef %27, ptr noundef %26, ptr noundef %1, ptr noundef %28)
  %.pre = load i32, ptr %7, align 4
  br label %30

30:                                               ; preds = %25, %.lr.ph
  %31 = phi i32 [ %.pre, %25 ], [ 0, %.lr.ph ]
  %32 = add i32 %31, %19
  %33 = sub i32 %32, %.028
  call void @proto_item_set_len(ptr noundef %11, i32 noundef %33)
  %34 = add i32 %.02527, 1
  call void @llvm.lifetime.end.p0(i64 4, ptr nonnull %7) #4
  call void @llvm.lifetime.end.p0(i64 8, ptr nonnull %6) #4
  %35 = icmp slt i32 %32, %8
  br i1 %35, label %.lr.ph, label %._crit_edge, !llvm.loop !18

._crit_edge:                                      ; preds = %30, %5
  ret void
}